target datalayout = "e-m:e-p270:32:32-p271:32:32-p272:64:64-i64:64-i128:128-f80:128-n8:16:32:64-S128"
target triple = "x86_64-pc-linux-gnu"

%struct.rb_transcoder = type { ptr, ptr, i32, ptr, i32, ptr, i32, i32, i32, i32, i32, i32, i64, ptr, ptr, ptr, ptr, ptr, ptr, ptr, ptr, ptr, ptr }
%struct.rb_transcoding = type { ptr, i32, i32, i32, i64, i8, i32, i64, i64, %union.anon, i64, i64, %union.anon.0, %union.rb_transcoding_state_t }
%union.anon = type { ptr }
%union.anon.0 = type { ptr }
%union.rb_transcoding_state_t = type { ptr }
%struct.rbimpl_size_mul_overflow_tag = type { i8, i64 }

; Function Attrs: alwaysinline nounwind
define internal ptr @memcpy.inline(ptr noalias nonnull %0, ptr noalias nonnull %1, i64 %2) #6 {
  %4 = alloca ptr, align 8
  %5 = alloca ptr, align 8
  %6 = alloca i64, align 8
  store ptr %0, ptr %4, align 8, !tbaa !23
  store ptr %1, ptr %5, align 8, !tbaa !23
  store i64 %2, ptr %6, align 8, !tbaa !12
  %7 = load ptr, ptr %4, align 8, !tbaa !23
  %8 = load ptr, ptr %5, align 8, !tbaa !23
  %9 = load i64, ptr %6, align 8, !tbaa !12
  %10 = load ptr, ptr %4, align 8, !tbaa !23
  %11 = call i64 @llvm.objectsize.i64.p0(ptr %10, i1 false, i1 true, i1 false)
  %12 = call ptr @__memcpy_chk(ptr noundef %7, ptr noundef %8, i64 noundef %9, i64 noundef %11) #25
  ret ptr %12
}

; Function Attrs: inlinehint nounwind sspstrong willreturn memory(none) uwtable
define internal { i8, i64 } @rbimpl_size_mul_overflow(i64 noundef %0, i64 noundef %1) #10 {
  %3 = alloca %struct.rbimpl_size_mul_overflow_tag, align 8
  %4 = alloca i64, align 8
  %5 = alloca i64, align 8
  store i64 %0, ptr %4, align 8, !tbaa !12
  store i64 %1, ptr %5, align 8, !tbaa !12
  call void @llvm.memset.p0.i64(ptr align 8 %3, i8 0, i64 16, i1 false)
  %6 = load i64, ptr %4, align 8, !tbaa !12
  %7 = load i64, ptr %5, align 8, !tbaa !12
  %8 = getelementptr inbounds nuw %struct.rbimpl_size_mul_overflow_tag, ptr %3, i32 0, i32 1
  %9 = call { i64, i1 } @llvm.umul.with.overflow.i64(i64 %6, i64 %7)
  %10 = extractvalue { i64, i1 } %9, 1
  %11 = extractvalue { i64, i1 } %9, 0
  store i64 %11, ptr %8, align 8
  %12 = getelementptr inbounds nuw %struct.rbimpl_size_mul_overflow_tag, ptr %3, i32 0, i32 0
  %13 = zext i1 %10 to i8
  store i8 %13, ptr %12, align 8, !tbaa !83
  %14 = load { i8, i64 }, ptr %3, align 8
  ret { i8, i64 } %14
}

; Function Attrs: inlinehint nounwind sspstrong memory(argmem: readwrite, inaccessiblemem: readwrite) uwtable
define internal nonnull ptr @ruby_nonempty_memcpy(ptr noundef nonnull %0, ptr noundef %1, i64 noundef %2) #9 {
  %4 = alloca ptr, align 8
  %5 = alloca ptr, align 8
  %6 = alloca ptr, align 8
  %7 = alloca i64, align 8
  store ptr %0, ptr %5, align 8, !tbaa !23
  store ptr %1, ptr %6, align 8, !tbaa !23
  store i64 %2, ptr %7, align 8, !tbaa !12
  %8 = load i64, ptr %7, align 8, !tbaa !12
  %9 = icmp ne i64 %8, 0
  br i1 %9, label %10, label %15

10:                                               ; preds = %3
  %11 = load ptr, ptr %5, align 8, !tbaa !23
  %12 = load ptr, ptr %6, align 8, !tbaa !23
  %13 = load i64, ptr %7, align 8, !tbaa !12
  %14 = call ptr @memcpy.inline(ptr noundef %11, ptr noundef %12, i64 noundef %13) #25
  store ptr %14, ptr %4, align 8
  br label %17

15:                                               ; preds = %3
  %16 = load ptr, ptr %5, align 8, !tbaa !23
  store ptr %16, ptr %4, align 8
  br label %17

17:                                               ; preds = %15, %10
  %18 = load ptr, ptr %4, align 8
  ret ptr %18
}

; Function Attrs: inlinehint nounwind sspstrong uwtable
define internal i64 @rbimpl_size_mul_or_raise(i64 noundef %0, i64 noundef %1) #7 {
  %3 = alloca i64, align 8
  %4 = alloca i64, align 8
  %5 = alloca %struct.rbimpl_size_mul_overflow_tag, align 8
  store i64 %0, ptr %3, align 8, !tbaa !12
  store i64 %1, ptr %4, align 8, !tbaa !12
  call void @llvm.lifetime.start.p0(i64 16, ptr %5) #25
  %6 = load i64, ptr %3, align 8, !tbaa !12
  %7 = load i64, ptr %4, align 8, !tbaa !12
  %8 = call { i8, i64 } @rbimpl_size_mul_overflow(i64 noundef %6, i64 noundef %7) #31
  %9 = getelementptr inbounds nuw { i8, i64 }, ptr %5, i32 0, i32 0
  %10 = extractvalue { i8, i64 } %8, 0
  store i8 %10, ptr %9, align 8
  %11 = getelementptr inbounds nuw { i8, i64 }, ptr %5, i32 0, i32 1
  %12 = extractvalue { i8, i64 } %8, 1
  store i64 %12, ptr %11, align 8
  %13 = getelementptr inbounds nuw %struct.rbimpl_size_mul_overflow_tag, ptr %5, i32 0, i32 0
  %14 = load i8, ptr %13, align 8, !tbaa !83, !range !86, !noundef !87
  %15 = trunc i8 %14 to i1
  %16 = xor i1 %15, true
  %17 = xor i1 %16, true
  %18 = xor i1 %17, true
  %19 = zext i1 %18 to i32
  %20 = sext i32 %19 to i64
  %21 = call i64 @llvm.expect.i64(i64 %20, i64 1)
  %22 = icmp ne i64 %21, 0
  br i1 %22, label %23, label %26

23:                                               ; preds = %2
  %24 = getelementptr inbounds nuw %struct.rbimpl_size_mul_overflow_tag, ptr %5, i32 0, i32 1
  %25 = load i64, ptr %24, align 8, !tbaa !88
  call void @llvm.lifetime.end.p0(i64 16, ptr %5) #25
  ret i64 %25

26:                                               ; preds = %2
  %27 = load i64, ptr %3, align 8, !tbaa !12
  %28 = load i64, ptr %4, align 8, !tbaa !12
  call void @ruby_malloc_size_overflow(i64 noundef %27, i64 noundef %28) #26
  unreachable
}

; Function Attrs: nounwind sspstrong uwtable
define internal i32 @transcode_restartable(ptr noundef %0, ptr noundef %1, ptr noundef %2, ptr noundef %3, ptr noundef %4, i32 noundef %5) #0 {
  %7 = alloca i32, align 4
  %8 = alloca ptr, align 8
  %9 = alloca ptr, align 8
  %10 = alloca ptr, align 8
  %11 = alloca ptr, align 8
  %12 = alloca ptr, align 8
  %13 = alloca i32, align 4
  %14 = alloca ptr, align 8
  %15 = alloca ptr, align 8
  %16 = alloca ptr, align 8
  %17 = alloca i32, align 4
  %18 = alloca i32, align 4
  store ptr %0, ptr %8, align 8, !tbaa !39
  store ptr %1, ptr %9, align 8, !tbaa !39
  store ptr %2, ptr %10, align 8, !tbaa !21
  store ptr %3, ptr %11, align 8, !tbaa !21
  store ptr %4, ptr %12, align 8, !tbaa !66
  store i32 %5, ptr %13, align 4, !tbaa !29
  %19 = load ptr, ptr %12, align 8, !tbaa !66
  %20 = getelementptr inbounds nuw %struct.rb_transcoding, ptr %19, i32 0, i32 8
  %21 = load i64, ptr %20, align 8, !tbaa !74
  %22 = icmp ne i64 %21, 0
  br i1 %22, label %23, label %119

23:                                               ; preds = %6
  call void @llvm.lifetime.start.p0(i64 8, ptr %14) #25
  %24 = load ptr, ptr %12, align 8, !tbaa !66
  %25 = getelementptr inbounds nuw %struct.rb_transcoding, ptr %24, i32 0, i32 8
  %26 = load i64, ptr %25, align 8, !tbaa !74
  %27 = call i64 @rbimpl_size_mul_or_raise(i64 noundef 1, i64 noundef %26)
  %28 = alloca i8, i64 %27, align 16
  store ptr %28, ptr %14, align 8, !tbaa !21
  call void @llvm.lifetime.start.p0(i64 8, ptr %15) #25
  %29 = load ptr, ptr %14, align 8, !tbaa !21
  store ptr %29, ptr %15, align 8, !tbaa !21
  call void @llvm.lifetime.start.p0(i64 8, ptr %16) #25
  %30 = load ptr, ptr %14, align 8, !tbaa !21
  %31 = load ptr, ptr %12, align 8, !tbaa !66
  %32 = getelementptr inbounds nuw %struct.rb_transcoding, ptr %31, i32 0, i32 8
  %33 = load i64, ptr %32, align 8, !tbaa !74
  %34 = getelementptr i8, ptr %30, i64 %33
  store ptr %34, ptr %16, align 8, !tbaa !21
  call void @llvm.lifetime.start.p0(i64 4, ptr %17) #25
  %35 = load ptr, ptr %14, align 8, !tbaa !21
  %36 = load ptr, ptr %12, align 8, !tbaa !66
  %37 = getelementptr inbounds nuw %struct.rb_transcoding, ptr %36, i32 0, i32 0
  %38 = load ptr, ptr %37, align 8, !tbaa !51
  %39 = getelementptr inbounds nuw %struct.rb_transcoder, ptr %38, i32 0, i32 9
  %40 = load i32, ptr %39, align 4, !tbaa !70
  %41 = icmp sle i32 %40, 8
  br i1 %41, label %42, label %46

42:                                               ; preds = %23
  %43 = load ptr, ptr %12, align 8, !tbaa !66
  %44 = getelementptr inbounds nuw %struct.rb_transcoding, ptr %43, i32 0, i32 9
  %45 = getelementptr inbounds [8 x i8], ptr %44, i64 0, i64 0
  br label %50

46:                                               ; preds = %23
  %47 = load ptr, ptr %12, align 8, !tbaa !66
  %48 = getelementptr inbounds nuw %struct.rb_transcoding, ptr %47, i32 0, i32 9
  %49 = load ptr, ptr %48, align 8, !tbaa !41
  br label %50

50:                                               ; preds = %46, %42
  %51 = phi ptr [ %45, %42 ], [ %49, %46 ]
  %52 = load ptr, ptr %12, align 8, !tbaa !66
  %53 = getelementptr inbounds nuw %struct.rb_transcoding, ptr %52, i32 0, i32 7
  %54 = load i64, ptr %53, align 8, !tbaa !72
  %55 = getelementptr i8, ptr %51, i64 %54
  %56 = load ptr, ptr %12, align 8, !tbaa !66
  %57 = getelementptr inbounds nuw %struct.rb_transcoding, ptr %56, i32 0, i32 8
  %58 = load i64, ptr %57, align 8, !tbaa !74
  %59 = call i64 @rbimpl_size_mul_or_raise(i64 noundef 1, i64 noundef %58)
  %60 = call nonnull ptr @ruby_nonempty_memcpy(ptr noundef %35, ptr noundef %55, i64 noundef %59) #28
  %61 = load ptr, ptr %12, align 8, !tbaa !66
  %62 = getelementptr inbounds nuw %struct.rb_transcoding, ptr %61, i32 0, i32 8
  store i64 0, ptr %62, align 8, !tbaa !74
  %63 = load ptr, ptr %9, align 8, !tbaa !39
  %64 = load ptr, ptr %16, align 8, !tbaa !21
  %65 = load ptr, ptr %11, align 8, !tbaa !21
  %66 = load ptr, ptr %12, align 8, !tbaa !66
  %67 = load i32, ptr %13, align 4, !tbaa !29
  %68 = or i32 %67, 131072
  %69 = call i32 @transcode_restartable0(ptr noundef %15, ptr noundef %63, ptr noundef %64, ptr noundef %65, ptr noundef %66, i32 noundef %68)
  store i32 %69, ptr %17, align 4, !tbaa !29
  %70 = load i32, ptr %17, align 4, !tbaa !29
  %71 = icmp ne i32 %70, 3
  br i1 %71, label %72, label %115

72:                                               ; preds = %50
  %73 = load ptr, ptr %12, align 8, !tbaa !66
  %74 = getelementptr inbounds nuw %struct.rb_transcoding, ptr %73, i32 0, i32 0
  %75 = load ptr, ptr %74, align 8, !tbaa !51
  %76 = getelementptr inbounds nuw %struct.rb_transcoder, ptr %75, i32 0, i32 9
  %77 = load i32, ptr %76, align 4, !tbaa !70
  %78 = icmp sle i32 %77, 8
  br i1 %78, label %79, label %83

79:                                               ; preds = %72
  %80 = load ptr, ptr %12, align 8, !tbaa !66
  %81 = getelementptr inbounds nuw %struct.rb_transcoding, ptr %80, i32 0, i32 9
  %82 = getelementptr inbounds [8 x i8], ptr %81, i64 0, i64 0
  br label %87

83:                                               ; preds = %72
  %84 = load ptr, ptr %12, align 8, !tbaa !66
  %85 = getelementptr inbounds nuw %struct.rb_transcoding, ptr %84, i32 0, i32 9
  %86 = load ptr, ptr %85, align 8, !tbaa !41
  br label %87

87:                                               ; preds = %83, %79
  %88 = phi ptr [ %82, %79 ], [ %86, %83 ]
  %89 = load ptr, ptr %12, align 8, !tbaa !66
  %90 = getelementptr inbounds nuw %struct.rb_transcoding, ptr %89, i32 0, i32 7
  %91 = load i64, ptr %90, align 8, !tbaa !72
  %92 = getelementptr i8, ptr %88, i64 %91
  %93 = load ptr, ptr %12, align 8, !tbaa !66
  %94 = getelementptr inbounds nuw %struct.rb_transcoding, ptr %93, i32 0, i32 8
  %95 = load i64, ptr %94, align 8, !tbaa !74
  %96 = getelementptr i8, ptr %92, i64 %95
  %97 = load ptr, ptr %15, align 8, !tbaa !21
  %98 = load ptr, ptr %16, align 8, !tbaa !21
  %99 = load ptr, ptr %15, align 8, !tbaa !21
  %100 = ptrtoint ptr %98 to i64
  %101 = ptrtoint ptr %99 to i64
  %102 = sub i64 %100, %101
  %103 = call i64 @rbimpl_size_mul_or_raise(i64 noundef 1, i64 noundef %102)
  %104 = call nonnull ptr @ruby_nonempty_memcpy(ptr noundef %96, ptr noundef %97, i64 noundef %103) #28
  %105 = load ptr, ptr %16, align 8, !tbaa !21
  %106 = load ptr, ptr %15, align 8, !tbaa !21
  %107 = ptrtoint ptr %105 to i64
  %108 = ptrtoint ptr %106 to i64
  %109 = sub i64 %107, %108
  %110 = load ptr, ptr %12, align 8, !tbaa !66
  %111 = getelementptr inbounds nuw %struct.rb_transcoding, ptr %110, i32 0, i32 8
  %112 = load i64, ptr %111, align 8, !tbaa !74
  %113 = add i64 %112, %109
  store i64 %113, ptr %111, align 8, !tbaa !74
  %114 = load i32, ptr %17, align 4, !tbaa !29
  store i32 %114, ptr %7, align 4
  store i32 1, ptr %18, align 4
  br label %116

115:                                              ; preds = %50
  store i32 0, ptr %18, align 4
  br label %116

116:                                              ; preds = %115, %87
  call void @llvm.lifetime.end.p0(i64 4, ptr %17) #25
  call void @llvm.lifetime.end.p0(i64 8, ptr %16) #25
  call void @llvm.lifetime.end.p0(i64 8, ptr %15) #25
  call void @llvm.lifetime.end.p0(i64 8, ptr %14) #25
  %117 = load i32, ptr %18, align 4
  switch i32 %117, label %129 [
    i32 0, label %118
    i32 1, label %127
  ]

118:                                              ; preds = %116
  br label %119

119:                                              ; preds = %118, %6
  %120 = load ptr, ptr %8, align 8, !tbaa !39
  %121 = load ptr, ptr %9, align 8, !tbaa !39
  %122 = load ptr, ptr %10, align 8, !tbaa !21
  %123 = load ptr, ptr %11, align 8, !tbaa !21
  %124 = load ptr, ptr %12, align 8, !tbaa !66
  %125 = load i32, ptr %13, align 4, !tbaa !29
  %126 = call i32 @transcode_restartable0(ptr noundef %120, ptr noundef %121, ptr noundef %122, ptr noundef %123, ptr noundef %124, i32 noundef %125)
  store i32 %126, ptr %7, align 4
  br label %127

127:                                              ; preds = %119, %116
  %128 = load i32, ptr %7, align 4
  ret i32 %128

129:                                              ; preds = %116
  unreachable
}