; Function Attrs: nounwind sspstrong uwtable
define internal fastcc range(i32 0, 7) i32 @transcode_restartable(ptr noundef captures(none) %0, ptr noundef captures(none) %1, ptr noundef %2, ptr noundef %3, ptr noundef %4, i32 noundef %5) unnamed_addr #0 {
  %7 = alloca ptr, align 8
  %8 = getelementptr inbounds nuw i8, ptr %4, i64 48
  %9 = load i64, ptr %8, align 8, !tbaa !94
  %.not = icmp eq i64 %9, 0
  br i1 %.not, label %46, label %rbimpl_size_mul_or_raise.exit

rbimpl_size_mul_or_raise.exit:                    ; preds = %6
  %10 = alloca i8, i64 %9, align 16
  call void @llvm.lifetime.start.p0(i64 8, ptr nonnull %7) #22
  store ptr %10, ptr %7, align 8, !tbaa !26
  %11 = getelementptr i8, ptr %10, i64 %9
  %12 = load ptr, ptr %4, align 8, !tbaa !65
  %13 = getelementptr inbounds nuw i8, ptr %12, i64 60
  %14 = load i32, ptr %13, align 4, !tbaa !77
  %15 = icmp slt i32 %14, 9
  %16 = getelementptr inbounds nuw i8, ptr %4, i64 56
  br i1 %15, label %ruby_nonempty_memcpy.exit, label %17

17:                                               ; preds = %rbimpl_size_mul_or_raise.exit
  %18 = load ptr, ptr %16, align 8, !tbaa !27
  br label %ruby_nonempty_memcpy.exit

ruby_nonempty_memcpy.exit:                        ; preds = %rbimpl_size_mul_or_raise.exit, %17
  %19 = phi ptr [ %18, %17 ], [ %16, %rbimpl_size_mul_or_raise.exit ]
  %20 = getelementptr inbounds nuw i8, ptr %4, i64 40
  %21 = load i64, ptr %20, align 8, !tbaa !92
  %22 = getelementptr i8, ptr %19, i64 %21
  call void @llvm.memcpy.p0.p0.i64(ptr noundef nonnull align 16 %10, ptr noundef nonnull readonly align 1 %22, i64 noundef range(i64 1, 0) %9, i1 noundef false) #22
  store i64 0, ptr %8, align 8, !tbaa !94
  %23 = or i32 %5, 131072
  %24 = call fastcc i32 @transcode_restartable0(ptr noundef nonnull %7, ptr noundef %1, ptr noundef %11, ptr noundef %3, ptr noundef nonnull %4, i32 noundef %23)
  %.not36.not = icmp eq i32 %24, 3
  br i1 %.not36.not, label %.thread, label %25

.thread:                                          ; preds = %ruby_nonempty_memcpy.exit
  call void @llvm.lifetime.end.p0(i64 8, ptr nonnull %7) #22
  br label %46

25:                                               ; preds = %ruby_nonempty_memcpy.exit
  %26 = load ptr, ptr %4, align 8, !tbaa !65
  %27 = getelementptr inbounds nuw i8, ptr %26, i64 60
  %28 = load i32, ptr %27, align 4, !tbaa !77
  %29 = icmp slt i32 %28, 9
  %30 = getelementptr inbounds nuw i8, ptr %4, i64 56
  br i1 %29, label %rbimpl_size_mul_or_raise.exit38, label %31

31:                                               ; preds = %25
  %32 = load ptr, ptr %30, align 8, !tbaa !27
  br label %rbimpl_size_mul_or_raise.exit38

rbimpl_size_mul_or_raise.exit38:                  ; preds = %25, %31
  %33 = phi ptr [ %32, %31 ], [ %30, %25 ]
  %34 = load ptr, ptr %7, align 8, !tbaa !26
  %35 = ptrtoint ptr %11 to i64
  %36 = ptrtoint ptr %34 to i64
  %37 = sub i64 %35, %36
  %.not.i39 = icmp eq ptr %11, %34
  br i1 %.not.i39, label %43, label %38

38:                                               ; preds = %rbimpl_size_mul_or_raise.exit38
  %39 = load i64, ptr %20, align 8, !tbaa !92
  %40 = getelementptr i8, ptr %33, i64 %39
  %41 = load i64, ptr %8, align 8, !tbaa !94
  %42 = getelementptr i8, ptr %40, i64 %41
  call void @llvm.memcpy.p0.p0.i64(ptr noundef nonnull align 1 %42, ptr noundef nonnull readonly align 1 %34, i64 noundef range(i64 1, 0) %37, i1 noundef false) #22
  br label %43

43:                                               ; preds = %38, %rbimpl_size_mul_or_raise.exit38
  %44 = load i64, ptr %8, align 8, !tbaa !94
  %45 = add i64 %44, %37
  store i64 %45, ptr %8, align 8, !tbaa !94
  call void @llvm.lifetime.end.p0(i64 8, ptr nonnull %7) #22
  br label %48

46:                                               ; preds = %.thread, %6
  %47 = call fastcc i32 @transcode_restartable0(ptr noundef %0, ptr noundef %1, ptr noundef %2, ptr noundef %3, ptr noundef nonnull %4, i32 noundef %5)
  br label %48

48:                                               ; preds = %43, %46
  %.1 = phi i32 [ %24, %43 ], [ %47, %46 ]
  ret i32 %.1
}